target datalayout = "e-m:e-p270:32:32-p271:32:32-p272:64:64-i64:64-i128:128-f80:128-n8:16:32:64-S128"
target triple = "x86_64-pc-linux-gnu"

%struct.vp56_context = type { ptr, %struct.H264ChromaContext, %struct.HpelDSPContext, %struct.VideoDSPContext, %struct.VP3DSPContext, %struct.VP56DSPContext, [64 x i8], [4 x ptr], ptr, ptr, %struct.VPXRangeCoder, %struct.VPXRangeCoder, ptr, i32, i32, [4 x i32], [4 x i32], i32, i32, [6 x i32], i32, i16, i16, ptr, [4 x %struct.VP56RefDc], [6 x i32], [3 x [3 x i16]], i32, ptr, [8 x i8], [6 x [64 x i16]], [6 x i32], ptr, [6 x %struct.VP56mv], [2 x %struct.VP56mv], i32, i32, i32, i32, i32, i32, i32, [4 x i8], [256 x i32], [4 x [64 x i8]], [4 x i8], i32, i32, i32, i32, i32, i32, i32, [4 x i64], ptr, ptr, ptr, ptr, ptr, ptr, ptr, ptr, ptr, ptr, %struct.VP56Model, i32, %struct.GetBitContext, [2 x %struct.VLC], [2 x %struct.VLC], [2 x [3 x [4 x %struct.VLC]]], [2 x [2 x i32]], i32, i32 }
%struct.H264ChromaContext = type { [4 x ptr], [4 x ptr] }
%struct.HpelDSPContext = type { [4 x [4 x ptr]], [4 x [4 x ptr]], [4 x [4 x ptr]], [4 x ptr] }
%struct.VideoDSPContext = type { ptr, ptr }
%struct.VP3DSPContext = type { ptr, ptr, ptr, ptr, ptr, ptr, ptr, ptr }
%struct.VP56DSPContext = type { ptr, ptr, ptr }
%struct.VPXRangeCoder = type { i32, i32, ptr, ptr, i32, i32 }
%struct.VP56RefDc = type { i8, i32, i16 }
%struct.VP56mv = type { i16, i16 }
%struct.VP56Model = type { [64 x i8], [64 x i8], [64 x i8], [2 x i8], [2 x i8], [2 x [2 x i8]], [2 x [7 x i8]], [2 x [8 x i8]], [2 x [11 x i8]], [2 x [3 x [6 x [11 x i8]]]], [2 x [3 x [3 x [6 x [5 x i8]]]]], [2 x [36 x [5 x i8]]], [2 x [14 x i8]], [3 x [10 x [10 x i8]]], [3 x [10 x [2 x i8]]] }
%struct.GetBitContext = type { ptr, ptr, i32, i32, i32 }
%struct.VLC = type { i32, ptr, i32, i32 }
%struct.AVRational = type { i32, i32 }
%struct.AVCodecContext = type { ptr, i32, i32, ptr, i32, i32, ptr, ptr, ptr, i64, i32, i32, ptr, i32, %struct.AVRational, %struct.AVRational, %struct.AVRational, i32, i32, i32, i32, i32, %struct.AVRational, i32, i32, i32, i32, i32, i32, i32, i32, i32, i32, i32, ptr, ptr, i32, float, float, float, float, float, float, float, float, float, i32, i32, i32, i32, i32, i32, i32, i32, i32, i32, i32, i32, ptr, ptr, ptr, i32, i32, i32, i32, i32, i32, i32, i32, i32, i32, %struct.AVChannelLayout, i32, i32, i32, i32, i32, i32, i32, i32, ptr, i32, i32, i32, float, float, i32, i32, i32, i32, i32, ptr, i64, i64, float, float, i32, i32, ptr, ptr, i32, i32, i32, i32, i32, ptr, ptr, ptr, ptr, i32, i32, [8 x i64], i32, i32, i32, i32, i32, i32, i32, ptr, ptr, i32, i32, i32, i32, i32, i32, i32, i32, i32, i32, ptr, ptr, i32, i32, ptr, ptr, ptr, ptr, i32, i32, i64, i32, i32, i64, ptr, i64, ptr, i32, ptr, i32 }
%struct.AVChannelLayout = type { i32, i32, %union.anon, ptr }
%union.anon = type { i64 }
%struct.AVCodec = type { ptr, ptr, i32, i32, i32, i8, ptr, ptr, ptr, ptr, ptr, ptr, ptr, ptr }

@ff_vp56_b2p = external constant [0 x i8], align 1
@ff_vp56_b6to4 = external constant [0 x i8], align 1

; Function Attrs: nounwind uwtable
define internal void @vp56_add_predictors_dc(ptr noundef %0, i32 noundef %1) #0 {
  %3 = alloca ptr, align 8
  %4 = alloca i32, align 4
  %5 = alloca i32, align 4
  %6 = alloca i32, align 4
  %7 = alloca ptr, align 8
  %8 = alloca ptr, align 8
  %9 = alloca i32, align 4
  %10 = alloca i32, align 4
  %11 = alloca i32, align 4
  store ptr %0, ptr %3, align 8, !tbaa !4
  store i32 %1, ptr %4, align 4, !tbaa !9
  call void @llvm.lifetime.start.p0(i64 4, ptr %5) #8
  %12 = load ptr, ptr %3, align 8, !tbaa !4
  %13 = getelementptr inbounds nuw %struct.vp56_context, ptr %12, i32 0, i32 6
  %14 = getelementptr inbounds [64 x i8], ptr %13, i64 0, i64 0
  %15 = load i8, ptr %14, align 16, !tbaa !28
  %16 = zext i8 %15 to i32
  store i32 %16, ptr %5, align 4, !tbaa !9
  call void @llvm.lifetime.start.p0(i64 4, ptr %6) #8
  store i32 0, ptr %6, align 4, !tbaa !9
  br label %17

17:                                               ; preds = %217, %2
  %18 = load i32, ptr %6, align 4, !tbaa !9
  %19 = icmp slt i32 %18, 6
  br i1 %19, label %20, label %220

20:                                               ; preds = %17
  call void @llvm.lifetime.start.p0(i64 8, ptr %7) #8
  %21 = load ptr, ptr %3, align 8, !tbaa !4
  %22 = getelementptr inbounds nuw %struct.vp56_context, ptr %21, i32 0, i32 23
  %23 = load ptr, ptr %22, align 8, !tbaa !86
  %24 = load ptr, ptr %3, align 8, !tbaa !4
  %25 = getelementptr inbounds nuw %struct.vp56_context, ptr %24, i32 0, i32 25
  %26 = load i32, ptr %6, align 4, !tbaa !9
  %27 = sext i32 %26 to i64
  %28 = getelementptr inbounds [6 x i32], ptr %25, i64 0, i64 %27
  %29 = load i32, ptr %28, align 4, !tbaa !9
  %30 = sext i32 %29 to i64
  %31 = getelementptr inbounds %struct.VP56RefDc, ptr %23, i64 %30
  store ptr %31, ptr %7, align 8, !tbaa !161
  call void @llvm.lifetime.start.p0(i64 8, ptr %8) #8
  %32 = load ptr, ptr %3, align 8, !tbaa !4
  %33 = getelementptr inbounds nuw %struct.vp56_context, ptr %32, i32 0, i32 24
  %34 = load i32, ptr %6, align 4, !tbaa !9
  %35 = sext i32 %34 to i64
  %36 = getelementptr inbounds [0 x i8], ptr @ff_vp56_b6to4, i64 0, i64 %35
  %37 = load i8, ptr %36, align 1, !tbaa !28
  %38 = zext i8 %37 to i64
  %39 = getelementptr inbounds nuw [4 x %struct.VP56RefDc], ptr %33, i64 0, i64 %38
  store ptr %39, ptr %8, align 8, !tbaa !161
  call void @llvm.lifetime.start.p0(i64 4, ptr %9) #8
  store i32 0, ptr %9, align 4, !tbaa !9
  call void @llvm.lifetime.start.p0(i64 4, ptr %10) #8
  store i32 0, ptr %10, align 4, !tbaa !9
  call void @llvm.lifetime.start.p0(i64 4, ptr %11) #8
  %40 = load i32, ptr %4, align 4, !tbaa !9
  %41 = load ptr, ptr %8, align 8, !tbaa !161
  %42 = getelementptr inbounds nuw %struct.VP56RefDc, ptr %41, i32 0, i32 1
  %43 = load i32, ptr %42, align 4, !tbaa !101
  %44 = icmp eq i32 %40, %43
  br i1 %44, label %45, label %54

45:                                               ; preds = %20
  %46 = load ptr, ptr %8, align 8, !tbaa !161
  %47 = getelementptr inbounds nuw %struct.VP56RefDc, ptr %46, i32 0, i32 2
  %48 = load i16, ptr %47, align 4, !tbaa !103
  %49 = sext i16 %48 to i32
  %50 = load i32, ptr %10, align 4, !tbaa !9
  %51 = add nsw i32 %50, %49
  store i32 %51, ptr %10, align 4, !tbaa !9
  %52 = load i32, ptr %9, align 4, !tbaa !9
  %53 = add nsw i32 %52, 1
  store i32 %53, ptr %9, align 4, !tbaa !9
  br label %54

54:                                               ; preds = %45, %20
  %55 = load i32, ptr %4, align 4, !tbaa !9
  %56 = load ptr, ptr %7, align 8, !tbaa !161
  %57 = getelementptr inbounds nuw %struct.VP56RefDc, ptr %56, i32 0, i32 1
  %58 = load i32, ptr %57, align 4, !tbaa !101
  %59 = icmp eq i32 %55, %58
  br i1 %59, label %60, label %69

60:                                               ; preds = %54
  %61 = load ptr, ptr %7, align 8, !tbaa !161
  %62 = getelementptr inbounds nuw %struct.VP56RefDc, ptr %61, i32 0, i32 2
  %63 = load i16, ptr %62, align 4, !tbaa !103
  %64 = sext i16 %63 to i32
  %65 = load i32, ptr %10, align 4, !tbaa !9
  %66 = add nsw i32 %65, %64
  store i32 %66, ptr %10, align 4, !tbaa !9
  %67 = load i32, ptr %9, align 4, !tbaa !9
  %68 = add nsw i32 %67, 1
  store i32 %68, ptr %9, align 4, !tbaa !9
  br label %69

69:                                               ; preds = %60, %54
  %70 = load ptr, ptr %3, align 8, !tbaa !4
  %71 = getelementptr inbounds nuw %struct.vp56_context, ptr %70, i32 0, i32 0
  %72 = load ptr, ptr %71, align 16, !tbaa !77
  %73 = getelementptr inbounds nuw %struct.AVCodecContext, ptr %72, i32 0, i32 3
  %74 = load ptr, ptr %73, align 8, !tbaa !162
  %75 = getelementptr inbounds nuw %struct.AVCodec, ptr %74, i32 0, i32 3
  %76 = load i32, ptr %75, align 4, !tbaa !163
  %77 = icmp eq i32 %76, 90
  br i1 %77, label %78, label %115

78:                                               ; preds = %69
  store i32 0, ptr %11, align 4, !tbaa !9
  br label %79

79:                                               ; preds = %111, %78
  %80 = load i32, ptr %11, align 4, !tbaa !9
  %81 = icmp slt i32 %80, 2
  br i1 %81, label %82, label %114

82:                                               ; preds = %79
  %83 = load i32, ptr %9, align 4, !tbaa !9
  %84 = icmp slt i32 %83, 2
  br i1 %84, label %85, label %110

85:                                               ; preds = %82
  %86 = load i32, ptr %4, align 4, !tbaa !9
  %87 = load ptr, ptr %7, align 8, !tbaa !161
  %88 = load i32, ptr %11, align 4, !tbaa !9
  %89 = mul nsw i32 2, %88
  %90 = add nsw i32 -1, %89
  %91 = sext i32 %90 to i64
  %92 = getelementptr inbounds %struct.VP56RefDc, ptr %87, i64 %91
  %93 = getelementptr inbounds nuw %struct.VP56RefDc, ptr %92, i32 0, i32 1
  %94 = load i32, ptr %93, align 4, !tbaa !101
  %95 = icmp eq i32 %86, %94
  br i1 %95, label %96, label %110

96:                                               ; preds = %85
  %97 = load ptr, ptr %7, align 8, !tbaa !161
  %98 = load i32, ptr %11, align 4, !tbaa !9
  %99 = mul nsw i32 2, %98
  %100 = add nsw i32 -1, %99
  %101 = sext i32 %100 to i64
  %102 = getelementptr inbounds %struct.VP56RefDc, ptr %97, i64 %101
  %103 = getelementptr inbounds nuw %struct.VP56RefDc, ptr %102, i32 0, i32 2
  %104 = load i16, ptr %103, align 4, !tbaa !103
  %105 = sext i16 %104 to i32
  %106 = load i32, ptr %10, align 4, !tbaa !9
  %107 = add nsw i32 %106, %105
  store i32 %107, ptr %10, align 4, !tbaa !9
  %108 = load i32, ptr %9, align 4, !tbaa !9
  %109 = add nsw i32 %108, 1
  store i32 %109, ptr %9, align 4, !tbaa !9
  br label %110

110:                                              ; preds = %96, %85, %82
  br label %111

111:                                              ; preds = %110
  %112 = load i32, ptr %11, align 4, !tbaa !9
  %113 = add nsw i32 %112, 1
  store i32 %113, ptr %11, align 4, !tbaa !9
  br label %79, !llvm.loop !168

114:                                              ; preds = %79
  br label %115

115:                                              ; preds = %114, %69
  %116 = load i32, ptr %9, align 4, !tbaa !9
  %117 = icmp eq i32 %116, 0
  br i1 %117, label %118, label %132

118:                                              ; preds = %115
  %119 = load ptr, ptr %3, align 8, !tbaa !4
  %120 = getelementptr inbounds nuw %struct.vp56_context, ptr %119, i32 0, i32 26
  %121 = load i32, ptr %6, align 4, !tbaa !9
  %122 = sext i32 %121 to i64
  %123 = getelementptr inbounds [0 x i8], ptr @ff_vp56_b2p, i64 0, i64 %122
  %124 = load i8, ptr %123, align 1, !tbaa !28
  %125 = zext i8 %124 to i64
  %126 = getelementptr inbounds nuw [3 x [3 x i16]], ptr %120, i64 0, i64 %125
  %127 = load i32, ptr %4, align 4, !tbaa !9
  %128 = sext i32 %127 to i64
  %129 = getelementptr inbounds [3 x i16], ptr %126, i64 0, i64 %128
  %130 = load i16, ptr %129, align 2, !tbaa !100
  %131 = sext i16 %130 to i32
  store i32 %131, ptr %10, align 4, !tbaa !9
  br label %139

132:                                              ; preds = %115
  %133 = load i32, ptr %9, align 4, !tbaa !9
  %134 = icmp eq i32 %133, 2
  br i1 %134, label %135, label %138

135:                                              ; preds = %132
  %136 = load i32, ptr %10, align 4, !tbaa !9
  %137 = sdiv i32 %136, 2
  store i32 %137, ptr %10, align 4, !tbaa !9
  br label %138

138:                                              ; preds = %135, %132
  br label %139

139:                                              ; preds = %138, %118
  %140 = load i32, ptr %10, align 4, !tbaa !9
  %141 = load ptr, ptr %3, align 8, !tbaa !4
  %142 = getelementptr inbounds nuw %struct.vp56_context, ptr %141, i32 0, i32 30
  %143 = load i32, ptr %6, align 4, !tbaa !9
  %144 = sext i32 %143 to i64
  %145 = getelementptr inbounds [6 x [64 x i16]], ptr %142, i64 0, i64 %144
  %146 = load i32, ptr %5, align 4, !tbaa !9
  %147 = sext i32 %146 to i64
  %148 = getelementptr inbounds [64 x i16], ptr %145, i64 0, i64 %147
  %149 = load i16, ptr %148, align 2, !tbaa !100
  %150 = sext i16 %149 to i32
  %151 = add nsw i32 %150, %140
  %152 = trunc i32 %151 to i16
  store i16 %152, ptr %148, align 2, !tbaa !100
  %153 = load ptr, ptr %3, align 8, !tbaa !4
  %154 = getelementptr inbounds nuw %struct.vp56_context, ptr %153, i32 0, i32 30
  %155 = load i32, ptr %6, align 4, !tbaa !9
  %156 = sext i32 %155 to i64
  %157 = getelementptr inbounds [6 x [64 x i16]], ptr %154, i64 0, i64 %156
  %158 = load i32, ptr %5, align 4, !tbaa !9
  %159 = sext i32 %158 to i64
  %160 = getelementptr inbounds [64 x i16], ptr %157, i64 0, i64 %159
  %161 = load i16, ptr %160, align 2, !tbaa !100
  %162 = load ptr, ptr %3, align 8, !tbaa !4
  %163 = getelementptr inbounds nuw %struct.vp56_context, ptr %162, i32 0, i32 26
  %164 = load i32, ptr %6, align 4, !tbaa !9
  %165 = sext i32 %164 to i64
  %166 = getelementptr inbounds [0 x i8], ptr @ff_vp56_b2p, i64 0, i64 %165
  %167 = load i8, ptr %166, align 1, !tbaa !28
  %168 = zext i8 %167 to i64
  %169 = getelementptr inbounds nuw [3 x [3 x i16]], ptr %163, i64 0, i64 %168
  %170 = load i32, ptr %4, align 4, !tbaa !9
  %171 = sext i32 %170 to i64
  %172 = getelementptr inbounds [3 x i16], ptr %169, i64 0, i64 %171
  store i16 %161, ptr %172, align 2, !tbaa !100
  %173 = load ptr, ptr %3, align 8, !tbaa !4
  %174 = getelementptr inbounds nuw %struct.vp56_context, ptr %173, i32 0, i32 30
  %175 = load i32, ptr %6, align 4, !tbaa !9
  %176 = sext i32 %175 to i64
  %177 = getelementptr inbounds [6 x [64 x i16]], ptr %174, i64 0, i64 %176
  %178 = load i32, ptr %5, align 4, !tbaa !9
  %179 = sext i32 %178 to i64
  %180 = getelementptr inbounds [64 x i16], ptr %177, i64 0, i64 %179
  %181 = load i16, ptr %180, align 2, !tbaa !100
  %182 = load ptr, ptr %7, align 8, !tbaa !161
  %183 = getelementptr inbounds nuw %struct.VP56RefDc, ptr %182, i32 0, i32 2
  store i16 %181, ptr %183, align 4, !tbaa !103
  %184 = load i32, ptr %4, align 4, !tbaa !9
  %185 = load ptr, ptr %7, align 8, !tbaa !161
  %186 = getelementptr inbounds nuw %struct.VP56RefDc, ptr %185, i32 0, i32 1
  store i32 %184, ptr %186, align 4, !tbaa !101
  %187 = load ptr, ptr %3, align 8, !tbaa !4
  %188 = getelementptr inbounds nuw %struct.vp56_context, ptr %187, i32 0, i32 30
  %189 = load i32, ptr %6, align 4, !tbaa !9
  %190 = sext i32 %189 to i64
  %191 = getelementptr inbounds [6 x [64 x i16]], ptr %188, i64 0, i64 %190
  %192 = load i32, ptr %5, align 4, !tbaa !9
  %193 = sext i32 %192 to i64
  %194 = getelementptr inbounds [64 x i16], ptr %191, i64 0, i64 %193
  %195 = load i16, ptr %194, align 2, !tbaa !100
  %196 = load ptr, ptr %8, align 8, !tbaa !161
  %197 = getelementptr inbounds nuw %struct.VP56RefDc, ptr %196, i32 0, i32 2
  store i16 %195, ptr %197, align 4, !tbaa !103
  %198 = load i32, ptr %4, align 4, !tbaa !9
  %199 = load ptr, ptr %8, align 8, !tbaa !161
  %200 = getelementptr inbounds nuw %struct.VP56RefDc, ptr %199, i32 0, i32 1
  store i32 %198, ptr %200, align 4, !tbaa !101
  %201 = load ptr, ptr %3, align 8, !tbaa !4
  %202 = getelementptr inbounds nuw %struct.vp56_context, ptr %201, i32 0, i32 21
  %203 = load i16, ptr %202, align 4, !tbaa !29
  %204 = zext i16 %203 to i32
  %205 = load ptr, ptr %3, align 8, !tbaa !4
  %206 = getelementptr inbounds nuw %struct.vp56_context, ptr %205, i32 0, i32 30
  %207 = load i32, ptr %6, align 4, !tbaa !9
  %208 = sext i32 %207 to i64
  %209 = getelementptr inbounds [6 x [64 x i16]], ptr %206, i64 0, i64 %208
  %210 = load i32, ptr %5, align 4, !tbaa !9
  %211 = sext i32 %210 to i64
  %212 = getelementptr inbounds [64 x i16], ptr %209, i64 0, i64 %211
  %213 = load i16, ptr %212, align 2, !tbaa !100
  %214 = sext i16 %213 to i32
  %215 = mul nsw i32 %214, %204
  %216 = trunc i32 %215 to i16
  store i16 %216, ptr %212, align 2, !tbaa !100
  call void @llvm.lifetime.end.p0(i64 4, ptr %11) #8
  call void @llvm.lifetime.end.p0(i64 4, ptr %10) #8
  call void @llvm.lifetime.end.p0(i64 4, ptr %9) #8
  call void @llvm.lifetime.end.p0(i64 8, ptr %8) #8
  call void @llvm.lifetime.end.p0(i64 8, ptr %7) #8
  br label %217

217:                                              ; preds = %139
  %218 = load i32, ptr %6, align 4, !tbaa !9
  %219 = add nsw i32 %218, 1
  store i32 %219, ptr %6, align 4, !tbaa !9
  br label %17, !llvm.loop !169

220:                                              ; preds = %17
  call void @llvm.lifetime.end.p0(i64 4, ptr %6) #8
  call void @llvm.lifetime.end.p0(i64 4, ptr %5) #8
  ret void
}