; Function Attrs: nofree norecurse nosync nounwind memory(readwrite, inaccessiblemem: none) uwtable
define internal fastcc void @vp56_add_predictors_dc(ptr noundef captures(none) %0, i32 noundef %1) unnamed_addr #6 {
  %3 = getelementptr inbounds nuw i8, ptr %0, i64 592
  %4 = load i8, ptr %3, align 16, !tbaa !26
  %5 = getelementptr inbounds nuw i8, ptr %0, i64 856
  %6 = load ptr, ptr %5, align 8, !tbaa !75
  %7 = getelementptr inbounds nuw i8, ptr %0, i64 912
  %8 = getelementptr inbounds nuw i8, ptr %0, i64 864
  %9 = load ptr, ptr %0, align 16, !tbaa !63
  %10 = getelementptr inbounds nuw i8, ptr %9, i64 16
  %11 = load ptr, ptr %10, align 8, !tbaa !151
  %12 = getelementptr inbounds nuw i8, ptr %11, i64 20
  %13 = load i32, ptr %12, align 4, !tbaa !152
  %14 = icmp eq i32 %13, 90
  %15 = getelementptr inbounds nuw i8, ptr %0, i64 976
  %16 = zext i8 %4 to i64
  %17 = getelementptr inbounds nuw i8, ptr %0, i64 936
  %18 = sext i32 %1 to i64
  %19 = getelementptr inbounds nuw i8, ptr %0, i64 852
  br label %20

20:                                               ; preds = %2, %70
  %indvars.iv72 = phi i64 [ 0, %2 ], [ %indvars.iv.next73, %70 ]
  %21 = getelementptr inbounds nuw [6 x i32], ptr %7, i64 0, i64 %indvars.iv72
  %22 = load i32, ptr %21, align 4, !tbaa !64
  %23 = sext i32 %22 to i64
  %24 = getelementptr inbounds %struct.VP56RefDc, ptr %6, i64 %23
  %25 = getelementptr inbounds nuw [0 x i8], ptr @ff_vp56_b6to4, i64 0, i64 %indvars.iv72
  %26 = load i8, ptr %25, align 1, !tbaa !26
  %27 = zext i8 %26 to i64
  %28 = getelementptr inbounds nuw [4 x %struct.VP56RefDc], ptr %8, i64 0, i64 %27
  %29 = getelementptr inbounds nuw i8, ptr %28, i64 4
  %30 = load i32, ptr %29, align 4, !tbaa !111
  %31 = icmp eq i32 %1, %30
  br i1 %31, label %32, label %36

32:                                               ; preds = %20
  %33 = getelementptr inbounds nuw i8, ptr %28, i64 8
  %34 = load i16, ptr %33, align 4, !tbaa !113
  %35 = sext i16 %34 to i32
  br label %36

36:                                               ; preds = %32, %20
  %.061 = phi i32 [ 1, %32 ], [ 0, %20 ]
  %.060 = phi i32 [ %35, %32 ], [ 0, %20 ]
  %37 = getelementptr inbounds nuw i8, ptr %24, i64 4
  %38 = load i32, ptr %37, align 4, !tbaa !111
  %39 = icmp eq i32 %1, %38
  br i1 %39, label %40, label %46

40:                                               ; preds = %36
  %41 = getelementptr inbounds nuw i8, ptr %24, i64 8
  %42 = load i16, ptr %41, align 4, !tbaa !113
  %43 = sext i16 %42 to i32
  %44 = add nsw i32 %.060, %43
  %45 = add nuw nsw i32 %.061, 1
  br label %46

46:                                               ; preds = %40, %36
  %.162 = phi i32 [ %45, %40 ], [ %.061, %36 ]
  %.1 = phi i32 [ %44, %40 ], [ %.060, %36 ]
  br i1 %14, label %.preheader, label %.loopexit

.preheader:                                       ; preds = %46, %60
  %47 = phi i1 [ false, %60 ], [ true, %46 ]
  %indvars.iv = phi i64 [ 24, %60 ], [ 0, %46 ]
  %.368 = phi i32 [ %.4, %60 ], [ %.1, %46 ]
  %.36467 = phi i32 [ %.465, %60 ], [ %.162, %46 ]
  %48 = icmp slt i32 %.36467, 2
  br i1 %48, label %49, label %60

49:                                               ; preds = %.preheader
  %50 = getelementptr i8, ptr %24, i64 %indvars.iv
  %51 = getelementptr i8, ptr %50, i64 -8
  %52 = load i32, ptr %51, align 4, !tbaa !111
  %53 = icmp eq i32 %1, %52
  br i1 %53, label %54, label %60

54:                                               ; preds = %49
  %55 = getelementptr i8, ptr %50, i64 -4
  %56 = load i16, ptr %55, align 4, !tbaa !113
  %57 = sext i16 %56 to i32
  %58 = add nsw i32 %.368, %57
  %59 = add nuw nsw i32 %.36467, 1
  br label %60

60:                                               ; preds = %.preheader, %49, %54
  %.465 = phi i32 [ %59, %54 ], [ %.36467, %49 ], [ 2, %.preheader ]
  %.4 = phi i32 [ %58, %54 ], [ %.368, %49 ], [ %.368, %.preheader ]
  br i1 %47, label %.preheader, label %.loopexit, !llvm.loop !157

.loopexit:                                        ; preds = %60, %46
  %.263 = phi i32 [ %.162, %46 ], [ %.465, %60 ]
  %.2 = phi i32 [ %.1, %46 ], [ %.4, %60 ]
  switch i32 %.263, label %70 [
    i32 0, label %61
    i32 2, label %68
  ]

61:                                               ; preds = %.loopexit
  %62 = getelementptr inbounds nuw [0 x i8], ptr @ff_vp56_b2p, i64 0, i64 %indvars.iv72
  %63 = load i8, ptr %62, align 1, !tbaa !26
  %64 = zext i8 %63 to i64
  %65 = getelementptr inbounds [3 x [3 x i16]], ptr %17, i64 0, i64 %64, i64 %18
  %66 = load i16, ptr %65, align 2, !tbaa !110
  %67 = zext i16 %66 to i32
  br label %70

68:                                               ; preds = %.loopexit
  %69 = sdiv i32 %.2, 2
  br label %70

70:                                               ; preds = %.loopexit, %68, %61
  %.5 = phi i32 [ %67, %61 ], [ %69, %68 ], [ %.2, %.loopexit ]
  %71 = getelementptr inbounds nuw [6 x [64 x i16]], ptr %15, i64 0, i64 %indvars.iv72, i64 %16
  %72 = load i16, ptr %71, align 2, !tbaa !110
  %73 = trunc i32 %.5 to i16
  %74 = add i16 %72, %73
  store i16 %74, ptr %71, align 2, !tbaa !110
  %75 = getelementptr inbounds nuw [0 x i8], ptr @ff_vp56_b2p, i64 0, i64 %indvars.iv72
  %76 = load i8, ptr %75, align 1, !tbaa !26
  %77 = zext i8 %76 to i64
  %78 = getelementptr inbounds [3 x [3 x i16]], ptr %17, i64 0, i64 %77, i64 %18
  store i16 %74, ptr %78, align 2, !tbaa !110
  %79 = load i16, ptr %71, align 2, !tbaa !110
  %80 = getelementptr inbounds nuw i8, ptr %24, i64 8
  store i16 %79, ptr %80, align 4, !tbaa !113
  store i32 %1, ptr %37, align 4, !tbaa !111
  %81 = getelementptr inbounds nuw i8, ptr %28, i64 8
  store i16 %79, ptr %81, align 4, !tbaa !113
  store i32 %1, ptr %29, align 4, !tbaa !111
  %82 = load i16, ptr %19, align 4, !tbaa !27
  %83 = load i16, ptr %71, align 2, !tbaa !110
  %84 = mul i16 %83, %82
  store i16 %84, ptr %71, align 2, !tbaa !110
  %indvars.iv.next73 = add nuw nsw i64 %indvars.iv72, 1
  %exitcond.not = icmp eq i64 %indvars.iv.next73, 6
  br i1 %exitcond.not, label %85, label %20, !llvm.loop !158

85:                                               ; preds = %70
  ret void
}